; ModuleID = '60/452.c'
source_filename = "60/452.c"
target datalayout = "e-m:e-p270:32:32-p271:32:32-p272:64:64-i64:64-f80:128-n8:16:32:64-S128"
target triple = "x86_64-pc-linux-gnu"

@.str = private unnamed_addr constant [3 x i8] c"%d\00", align 1
@.str.1 = private unnamed_addr constant [6 x i8] c"empty\00", align 1
@.str.2 = private unnamed_addr constant [7 x i8] c"%d %d\0A\00", align 1

; Function Attrs: noinline nounwind uwtable
define dso_local i32 @f(i32 %0, i32 %1) #0 {
  %3 = alloca i32, align 4
  %4 = alloca i32, align 4
  %5 = alloca i32, align 4
  %6 = alloca i32, align 4
  %7 = alloca i32, align 4
  %8 = alloca i32, align 4
  %9 = alloca i32, align 4
  store i32 %0, i32* %3, align 4
  store i32 %1, i32* %4, align 4
  store i32 0, i32* %6, align 4
  store i32 0, i32* %8, align 4
  store i32 2, i32* %5, align 4
  br label %10

10:                                               ; preds = %23, %2
  %11 = load i32, i32* %5, align 4
  %12 = load i32, i32* %3, align 4
  %13 = icmp slt i32 %11, %12
  br i1 %13, label %14, label %26

14:                                               ; preds = %10
  %15 = load i32, i32* %3, align 4
  %16 = load i32, i32* %5, align 4
  %17 = srem i32 %15, %16
  %18 = icmp ne i32 %17, 0
  br i1 %18, label %19, label %22

19:                                               ; preds = %14
  %20 = load i32, i32* %6, align 4
  %21 = add nsw i32 %20, 1
  store i32 %21, i32* %6, align 4
  br label %22

22:                                               ; preds = %19, %14
  br label %23

23:                                               ; preds = %22
  %24 = load i32, i32* %5, align 4
  %25 = add nsw i32 %24, 1
  store i32 %25, i32* %5, align 4
  br label %10

26:                                               ; preds = %10
  store i32 2, i32* %7, align 4
  br label %27

27:                                               ; preds = %40, %26
  %28 = load i32, i32* %7, align 4
  %29 = load i32, i32* %4, align 4
  %30 = icmp slt i32 %28, %29
  br i1 %30, label %31, label %43

31:                                               ; preds = %27
  %32 = load i32, i32* %4, align 4
  %33 = load i32, i32* %7, align 4
  %34 = srem i32 %32, %33
  %35 = icmp ne i32 %34, 0
  br i1 %35, label %36, label %39

36:                                               ; preds = %31
  %37 = load i32, i32* %8, align 4
  %38 = add nsw i32 %37, 1
  store i32 %38, i32* %8, align 4
  br label %39

39:                                               ; preds = %36, %31
  br label %40

40:                                               ; preds = %39
  %41 = load i32, i32* %7, align 4
  %42 = add nsw i32 %41, 1
  store i32 %42, i32* %7, align 4
  br label %27

43:                                               ; preds = %27
  %44 = load i32, i32* %6, align 4
  %45 = load i32, i32* %3, align 4
  %46 = sub nsw i32 %45, 2
  %47 = icmp eq i32 %44, %46
  br i1 %47, label %48, label %54

48:                                               ; preds = %43
  %49 = load i32, i32* %8, align 4
  %50 = load i32, i32* %4, align 4
  %51 = sub nsw i32 %50, 2
  %52 = icmp eq i32 %49, %51
  br i1 %52, label %53, label %54

53:                                               ; preds = %48
  store i32 1, i32* %9, align 4
  br label %55

54:                                               ; preds = %48, %43
  store i32 0, i32* %9, align 4
  br label %55

55:                                               ; preds = %54, %53
  %56 = load i32, i32* %9, align 4
  ret i32 %56
}

; Function Attrs: noinline nounwind uwtable
define dso_local void @main() #0 {
  %1 = alloca i32, align 4
  %2 = alloca i32, align 4
  %3 = alloca i32, align 4
  %4 = call i32 (i8*, ...) @__isoc99_scanf(i8* getelementptr inbounds ([3 x i8], [3 x i8]* @.str, i64 0, i64 0), i32* %1)
  %5 = load i32, i32* %1, align 4
  %6 = icmp slt i32 %5, 5
  br i1 %6, label %7, label %9

7:                                                ; preds = %0
  %8 = call i32 (i8*, ...) @printf(i8* getelementptr inbounds ([6 x i8], [6 x i8]* @.str.1, i64 0, i64 0))
  br label %35

9:                                                ; preds = %0
  %10 = load i32, i32* %1, align 4
  %11 = icmp sge i32 %10, 5
  br i1 %11, label %12, label %34

12:                                               ; preds = %9
  store i32 3, i32* %2, align 4
  br label %13

13:                                               ; preds = %30, %12
  %14 = load i32, i32* %2, align 4
  %15 = load i32, i32* %1, align 4
  %16 = icmp slt i32 %14, %15
  br i1 %16, label %17, label %33

17:                                               ; preds = %13
  %18 = load i32, i32* %2, align 4
  %19 = load i32, i32* %2, align 4
  %20 = add nsw i32 %19, 2
  %21 = call i32 @f(i32 %18, i32 %20)
  store i32 %21, i32* %3, align 4
  %22 = load i32, i32* %3, align 4
  %23 = icmp eq i32 %22, 1
  br i1 %23, label %24, label %29

24:                                               ; preds = %17
  %25 = load i32, i32* %2, align 4
  %26 = load i32, i32* %2, align 4
  %27 = add nsw i32 %26, 2
  %28 = call i32 (i8*, ...) @printf(i8* getelementptr inbounds ([7 x i8], [7 x i8]* @.str.2, i64 0, i64 0), i32 %25, i32 %27)
  br label %29

29:                                               ; preds = %24, %17
  br label %30

30:                                               ; preds = %29
  %31 = load i32, i32* %2, align 4
  %32 = add nsw i32 %31, 1
  store i32 %32, i32* %2, align 4
  br label %13

33:                                               ; preds = %13
  br label %34

34:                                               ; preds = %33, %9
  br label %35

35:                                               ; preds = %34, %7
  ret void
}

declare dso_local i32 @__isoc99_scanf(i8*, ...) #1

declare dso_local i32 @printf(i8*, ...) #1


!llvm.module.flags = !{!0}
!llvm.ident = !{!1}

!0 = !{i32 1, !"wchar_size", i32 4}
!1 = !{!"clang version 10.0.0-4ubuntu1 "}
